; Function Attrs: mustprogress uwtable
define dso_local void @_ZN4Luau7CodeGen3A6418AssemblyBuilderA648placeBFMEPKcNS1_11RegisterA64ES5_ihii(ptr noundef nonnull align 8 dereferenceable(176) %0, ptr noundef %1, i8 %2, i8 %3, i32 noundef %4, i8 noundef zeroext %5, i32 noundef %6, i32 noundef %7) local_unnamed_addr #0 align 2 {
  %9 = getelementptr inbounds nuw i8, ptr %0, i64 80
  %10 = load i8, ptr %9, align 8, !tbaa !14, !range !46, !noundef !47
  %11 = trunc nuw i8 %10 to i1
  br i1 %11, label %12, label %13

12:                                               ; preds = %8
  tail call void @_ZN4Luau7CodeGen3A6418AssemblyBuilderA643logEPKcNS1_11RegisterA64ES5_i(ptr noundef nonnull align 8 dereferenceable(176) %0, ptr noundef %1, i8 %2, i8 %3, i32 noundef %4)
  br label %13

13:                                               ; preds = %12, %8
  %14 = and i8 %2, 7
  %15 = icmp eq i8 %14, 2
  %16 = lshr i8 %2, 3
  %17 = zext nneg i8 %16 to i32
  %18 = lshr i8 %3, 3
  %19 = zext nneg i8 %18 to i32
  %20 = shl nuw nsw i32 %19, 5
  %21 = or disjoint i32 %20, %17
  %22 = shl i32 %7, 10
  %23 = or disjoint i32 %22, %21
  %24 = shl i32 %6, 16
  %25 = zext i8 %5 to i32
  %26 = shl nuw nsw i32 %25, 23
  %27 = select i1 %15, i32 -2143289344, i32 0
  %28 = or i32 %27, %24
  %29 = or i32 %28, %26
  %30 = or i32 %29, %23
  %31 = getelementptr inbounds nuw i8, ptr %0, i64 160
  %32 = load ptr, ptr %31, align 8, !tbaa !39
  %33 = getelementptr inbounds nuw i8, ptr %32, i64 4
  store ptr %33, ptr %31, align 8, !tbaa !39
  store i32 %30, ptr %32, align 4, !tbaa !48
  %34 = getelementptr inbounds nuw i8, ptr %0, i64 168
  %35 = load ptr, ptr %34, align 8, !tbaa !40
  %36 = icmp eq ptr %35, %33
  br i1 %36, label %37, label %_ZN4Luau7CodeGen3A6418AssemblyBuilderA646commitEv.exit

37:                                               ; preds = %13
  tail call void @_ZN4Luau7CodeGen3A6418AssemblyBuilderA646extendEv(ptr noundef nonnull align 8 dereferenceable(176) %0)
  br label %_ZN4Luau7CodeGen3A6418AssemblyBuilderA646commitEv.exit

_ZN4Luau7CodeGen3A6418AssemblyBuilderA646commitEv.exit: ; preds = %13, %37
  ret void
}